(dp0
S'initmag'
p1
I8
sS'homvel'
p2
I10
sS'image'
p3
S'marker-red.png'
p4
sS'start'
p5
(I50
I20
tp6
sS'initang'
p7
I0
sS'path'
p8
(lp9
(lp10
I0
aI0
aI100
aa(lp11
I0
aI-30
aI3
aa(lp12
I0
aI0
aI5
aa(lp13
I0
aI-30
aI3
aa(lp14
I0
aI0
aI100
aa(lp15
I0
aI30
aI3
aa(lp16
I0
aI0
aI5
aa(lp17
I0
aI30
aI3
aasS'homrad'
p18
I300
s.