S"{'initmag': 8, 'homvel': 10, 'image': 'marker-red.png', 'start': (50, 20), 'initang': 0, 'path': [[0, 0, 100], [0, -30, 3], [0, 0, 5], [0, -30, 3], [0, 0, 100], [0, 30, 3], [0, 0, 5], [0, 30, 3]], 'homrad': 50}\n"
p0
.
