(dp0
S'start'
p1
(I50
I20
tp2
sS'initmag'
p3
I8
sS'initang'
p4
I0
sS'homvel'
p5
I10
sS'path'
p6
(lp7
(lp8
I0
aI0
aI100
aa(lp9
I0
aI-30
aI3
aa(lp10
I0
aI0
aI5
aa(lp11
I0
aI-30
aI3
aa(lp12
I0
aI0
aI100
aa(lp13
I0
aI30
aI3
aa(lp14
I0
aI0
aI5
aa(lp15
I0
aI30
aI3
aasS'image'
p16
S'marker-red.png'
p17
sS'homrad'
p18
I100
s.