(dp0
S'initmag'
p1
I1
sS'homvel'
p2
I10
sS'image'
p3
S'marker-green.png'
p4
sS'start'
p5
(I300
I400
tp6
sS'initang'
p7
I135
sS'path'
p8
(lp9
(lp10
F0.10000000000000001
aI0
aI50
aa(lp11
I0
aI-5
aI18
aa(lp12
I0
aI0
aI50
aa(lp13
I0
aI-5
aI18
aa(lp14
I0
aI0
aI50
aa(lp15
I0
aI-5
aI18
aa(lp16
F-0.10000000000000001
aI0
aI50
aa(lp17
I0
aI-5
aI18
aasS'homrad'
p18
I75
s.